target datalayout = "e-m:e-p270:32:32-p271:32:32-p272:64:64-i64:64-i128:128-f80:128-n8:16:32:64-S128"
target triple = "x86_64-pc-linux-gnu"

%"class.gmx::AbstractAnalysisArrayData" = type <{ %"class.gmx::AbstractAnalysisData", i32, %"class.gmx::AnalysisDataPointSetInfo", [4 x i8], %"class.std::vector", %"class.std::vector.5", float, i8, i8, [2 x i8] }>
%"class.gmx::AbstractAnalysisData" = type { ptr, %"class.std::unique_ptr" }
%"class.std::unique_ptr" = type { %"struct.std::__uniq_ptr_data" }
%"struct.std::__uniq_ptr_data" = type { %"class.std::__uniq_ptr_impl" }
%"class.std::__uniq_ptr_impl" = type { %"class.std::tuple" }
%"class.std::tuple" = type { %"struct.std::_Tuple_impl" }
%"struct.std::_Tuple_impl" = type { %"struct.std::_Head_base.4" }
%"struct.std::_Head_base.4" = type { ptr }
%"class.gmx::AnalysisDataPointSetInfo" = type { i32, i32, i32, i32 }
%"class.std::vector" = type { %"struct.std::_Vector_base" }
%"struct.std::_Vector_base" = type { %"struct.std::_Vector_base<gmx::AnalysisDataValue, std::allocator<gmx::AnalysisDataValue>>::_Vector_impl" }
%"struct.std::_Vector_base<gmx::AnalysisDataValue, std::allocator<gmx::AnalysisDataValue>>::_Vector_impl" = type { %"struct.std::_Vector_base<gmx::AnalysisDataValue, std::allocator<gmx::AnalysisDataValue>>::_Vector_impl_data" }
%"struct.std::_Vector_base<gmx::AnalysisDataValue, std::allocator<gmx::AnalysisDataValue>>::_Vector_impl_data" = type { ptr, ptr, ptr }
%"class.std::vector.5" = type { %"struct.std::_Vector_base.6" }
%"struct.std::_Vector_base.6" = type { %"struct.std::_Vector_base<float, std::allocator<float>>::_Vector_impl" }
%"struct.std::_Vector_base<float, std::allocator<float>>::_Vector_impl" = type { %"struct.std::_Vector_base<float, std::allocator<float>>::_Vector_impl_data" }
%"struct.std::_Vector_base<float, std::allocator<float>>::_Vector_impl_data" = type { ptr, ptr, ptr }
%"class.gmx::AnalysisDataAverageModule" = type { %"class.gmx::AbstractAnalysisArrayData.base", %"class.gmx::AnalysisDataModuleSerial", %"class.std::unique_ptr.10" }
%"class.gmx::AbstractAnalysisArrayData.base" = type <{ %"class.gmx::AbstractAnalysisData", i32, %"class.gmx::AnalysisDataPointSetInfo", [4 x i8], %"class.std::vector", %"class.std::vector.5", float, i8, i8 }>
%"class.gmx::AnalysisDataModuleSerial" = type { %"class.gmx::IAnalysisDataModule" }
%"class.gmx::IAnalysisDataModule" = type { ptr }
%"class.std::unique_ptr.10" = type { %"struct.std::__uniq_ptr_data.11" }
%"struct.std::__uniq_ptr_data.11" = type { %"class.std::__uniq_ptr_impl.12" }
%"class.std::__uniq_ptr_impl.12" = type { %"class.std::tuple.13" }
%"class.std::tuple.13" = type { %"struct.std::_Tuple_impl.14" }
%"struct.std::_Tuple_impl.14" = type { %"struct.std::_Head_base.17" }
%"struct.std::_Head_base.17" = type { ptr }
%"class.gmx::AnalysisDataAverageModule::Impl" = type <{ %"class.std::vector.18", i8, [7 x i8] }>
%"class.std::vector.18" = type { %"struct.std::_Vector_base.19" }
%"struct.std::_Vector_base.19" = type { %"struct.std::_Vector_base<gmx::AnalysisDataFrameAverager, std::allocator<gmx::AnalysisDataFrameAverager>>::_Vector_impl" }
%"struct.std::_Vector_base<gmx::AnalysisDataFrameAverager, std::allocator<gmx::AnalysisDataFrameAverager>>::_Vector_impl" = type { %"struct.std::_Vector_base<gmx::AnalysisDataFrameAverager, std::allocator<gmx::AnalysisDataFrameAverager>>::_Vector_impl_data" }
%"struct.std::_Vector_base<gmx::AnalysisDataFrameAverager, std::allocator<gmx::AnalysisDataFrameAverager>>::_Vector_impl_data" = type { ptr, ptr, ptr }
%"class.gmx::AnalysisDataValue" = type { float, float, %"class.gmx::FlagsTemplate" }
%"class.gmx::FlagsTemplate" = type { i64 }

; Function Attrs: mustprogress nounwind uwtable
define linkonce_odr noundef nonnull align 8 dereferenceable(8) ptr @_ZNSt10_Head_baseILm0EPN3gmx25AnalysisDataAverageModule4ImplELb0EE7_M_headERKS4_(ptr noundef nonnull align 8 dereferenceable(8) %0) #0 comdat align 2 {
  %2 = alloca ptr, align 8
  store ptr %0, ptr %2, align 8
  %3 = load ptr, ptr %2, align 8
  %4 = getelementptr inbounds %"struct.std::_Head_base.17", ptr %3, i32 0, i32 0
  ret ptr %4
}

; Function Attrs: mustprogress nounwind uwtable
define linkonce_odr noundef nonnull align 8 dereferenceable(8) ptr @_ZNSt11_Tuple_implILm0EJPN3gmx25AnalysisDataAverageModule4ImplESt14default_deleteIS2_EEE7_M_headERKS6_(ptr noundef nonnull align 8 dereferenceable(8) %0) #0 comdat align 2 {
  %2 = alloca ptr, align 8
  store ptr %0, ptr %2, align 8
  %3 = load ptr, ptr %2, align 8
  %4 = call noundef nonnull align 8 dereferenceable(8) ptr @_ZNSt10_Head_baseILm0EPN3gmx25AnalysisDataAverageModule4ImplELb0EE7_M_headERKS4_(ptr noundef nonnull align 8 dereferenceable(8) %3) #13
  ret ptr %4
}

; Function Attrs: mustprogress nounwind uwtable
define linkonce_odr noundef nonnull align 8 dereferenceable(8) ptr @_ZSt12__get_helperILm0EPN3gmx25AnalysisDataAverageModule4ImplEJSt14default_deleteIS2_EEERKT0_RKSt11_Tuple_implIXT_EJS6_DpT1_EE(ptr noundef nonnull align 8 dereferenceable(8) %0) #0 comdat {
  %2 = alloca ptr, align 8
  store ptr %0, ptr %2, align 8
  %3 = load ptr, ptr %2, align 8
  %4 = call noundef nonnull align 8 dereferenceable(8) ptr @_ZNSt11_Tuple_implILm0EJPN3gmx25AnalysisDataAverageModule4ImplESt14default_deleteIS2_EEE7_M_headERKS6_(ptr noundef nonnull align 8 dereferenceable(8) %3) #13
  ret ptr %4
}

; Function Attrs: mustprogress nounwind uwtable
define linkonce_odr noundef nonnull align 8 dereferenceable(8) ptr @_ZSt3getILm0EJPN3gmx25AnalysisDataAverageModule4ImplESt14default_deleteIS2_EEERKNSt13tuple_elementIXT_ESt5tupleIJDpT0_EEE4typeERKSA_(ptr noundef nonnull align 8 dereferenceable(8) %0) #0 comdat {
  %2 = alloca ptr, align 8
  store ptr %0, ptr %2, align 8
  %3 = load ptr, ptr %2, align 8
  %4 = call noundef nonnull align 8 dereferenceable(8) ptr @_ZSt12__get_helperILm0EPN3gmx25AnalysisDataAverageModule4ImplEJSt14default_deleteIS2_EEERKT0_RKSt11_Tuple_implIXT_EJS6_DpT1_EE(ptr noundef nonnull align 8 dereferenceable(8) %3) #13
  ret ptr %4
}

; Function Attrs: mustprogress nounwind uwtable
define linkonce_odr noundef ptr @_ZNKSt15__uniq_ptr_implIN3gmx25AnalysisDataAverageModule4ImplESt14default_deleteIS2_EE6_M_ptrEv(ptr noundef nonnull align 8 dereferenceable(8) %0) #0 comdat align 2 {
  %2 = alloca ptr, align 8
  store ptr %0, ptr %2, align 8
  %3 = load ptr, ptr %2, align 8
  %4 = getelementptr inbounds %"class.std::__uniq_ptr_impl.12", ptr %3, i32 0, i32 0
  %5 = call noundef nonnull align 8 dereferenceable(8) ptr @_ZSt3getILm0EJPN3gmx25AnalysisDataAverageModule4ImplESt14default_deleteIS2_EEERKNSt13tuple_elementIXT_ESt5tupleIJDpT0_EEE4typeERKSA_(ptr noundef nonnull align 8 dereferenceable(8) %4) #13
  %6 = load ptr, ptr %5, align 8
  ret ptr %6
}

; Function Attrs: mustprogress nounwind uwtable
define linkonce_odr noundef nonnull align 8 dereferenceable(16) ptr @_ZNKSt6vectorIN3gmx17AnalysisDataValueESaIS1_EEixEm(ptr noundef nonnull align 8 dereferenceable(24) %0, i64 noundef %1) #0 comdat align 2 {
  %3 = alloca ptr, align 8
  %4 = alloca i64, align 8
  store ptr %0, ptr %3, align 8
  store i64 %1, ptr %4, align 8
  %5 = load ptr, ptr %3, align 8
  %6 = getelementptr inbounds %"struct.std::_Vector_base", ptr %5, i32 0, i32 0
  %7 = getelementptr inbounds %"struct.std::_Vector_base<gmx::AnalysisDataValue, std::allocator<gmx::AnalysisDataValue>>::_Vector_impl_data", ptr %6, i32 0, i32 0
  %8 = load ptr, ptr %7, align 8
  %9 = load i64, ptr %4, align 8
  %10 = getelementptr inbounds %"class.gmx::AnalysisDataValue", ptr %8, i64 %9
  ret ptr %10
}

; Function Attrs: mustprogress nounwind uwtable
define linkonce_odr noundef ptr @_ZNKSt10unique_ptrIN3gmx25AnalysisDataAverageModule4ImplESt14default_deleteIS2_EE3getEv(ptr noundef nonnull align 8 dereferenceable(8) %0) #0 comdat align 2 {
  %2 = alloca ptr, align 8
  store ptr %0, ptr %2, align 8
  %3 = load ptr, ptr %2, align 8
  %4 = getelementptr inbounds %"class.std::unique_ptr.10", ptr %3, i32 0, i32 0
  %5 = call noundef ptr @_ZNKSt15__uniq_ptr_implIN3gmx25AnalysisDataAverageModule4ImplESt14default_deleteIS2_EE6_M_ptrEv(ptr noundef nonnull align 8 dereferenceable(8) %4) #13
  ret ptr %5
}

; Function Attrs: mustprogress nounwind uwtable
define linkonce_odr noundef float @_ZNK3gmx17AnalysisDataValue5errorEv(ptr noundef nonnull align 8 dereferenceable(16) %0) #0 comdat align 2 {
  %2 = alloca ptr, align 8
  store ptr %0, ptr %2, align 8
  %3 = load ptr, ptr %2, align 8
  %4 = getelementptr inbounds %"class.gmx::AnalysisDataValue", ptr %3, i32 0, i32 1
  %5 = load float, ptr %4, align 4
  ret float %5
}

; Function Attrs: mustprogress uwtable
define linkonce_odr noundef nonnull align 8 dereferenceable(16) ptr @_ZNK3gmx25AbstractAnalysisArrayData5valueEii(ptr noundef nonnull align 8 dereferenceable(94) %0, i32 noundef %1, i32 noundef %2) #2 comdat align 2 {
  %4 = alloca ptr, align 8
  %5 = alloca i32, align 4
  %6 = alloca i32, align 4
  store ptr %0, ptr %4, align 8
  store i32 %1, ptr %5, align 4
  store i32 %2, ptr %6, align 4
  %7 = load ptr, ptr %4, align 8
  %8 = getelementptr inbounds %"class.gmx::AbstractAnalysisArrayData", ptr %7, i32 0, i32 4
  %9 = load i32, ptr %5, align 4
  %10 = call noundef i32 @_ZNK3gmx20AbstractAnalysisData11columnCountEv(ptr noundef nonnull align 8 dereferenceable(16) %7)
  %11 = mul nsw i32 %9, %10
  %12 = load i32, ptr %6, align 4
  %13 = add nsw i32 %11, %12
  %14 = sext i32 %13 to i64
  %15 = call noundef nonnull align 8 dereferenceable(16) ptr @_ZNKSt6vectorIN3gmx17AnalysisDataValueESaIS1_EEixEm(ptr noundef nonnull align 8 dereferenceable(24) %8, i64 noundef %14) #13
  ret ptr %15
}

; Function Attrs: mustprogress nounwind uwtable
define linkonce_odr void @_ZSt4swapIiENSt9enable_ifIXsr6__and_ISt6__not_ISt15__is_tuple_likeIT_EESt21is_move_constructibleIS3_ESt18is_move_assignableIS3_EEE5valueEvE4typeERS3_SC_(ptr noundef nonnull align 4 dereferenceable(4) %0, ptr noundef nonnull align 4 dereferenceable(4) %1) #0 comdat {
  %3 = alloca ptr, align 8
  %4 = alloca ptr, align 8
  %5 = alloca i32, align 4
  store ptr %0, ptr %3, align 8
  store ptr %1, ptr %4, align 8
  %6 = load ptr, ptr %3, align 8
  %7 = load i32, ptr %6, align 4
  store i32 %7, ptr %5, align 4
  %8 = load ptr, ptr %4, align 8
  %9 = load i32, ptr %8, align 4
  %10 = load ptr, ptr %3, align 8
  store i32 %9, ptr %10, align 4
  %11 = load i32, ptr %5, align 4
  %12 = load ptr, ptr %4, align 8
  store i32 %11, ptr %12, align 4
  ret void
}

; Function Attrs: mustprogress nounwind uwtable
define linkonce_odr noundef ptr @_ZNKSt10unique_ptrIN3gmx25AnalysisDataAverageModule4ImplESt14default_deleteIS2_EEptEv(ptr noundef nonnull align 8 dereferenceable(8) %0) #0 comdat align 2 {
  %2 = alloca ptr, align 8
  store ptr %0, ptr %2, align 8
  %3 = load ptr, ptr %2, align 8
  %4 = call noundef ptr @_ZNKSt10unique_ptrIN3gmx25AnalysisDataAverageModule4ImplESt14default_deleteIS2_EE3getEv(ptr noundef nonnull align 8 dereferenceable(8) %3) #13
  ret ptr %4
}

; Function Attrs: mustprogress uwtable
define noundef float @_ZNK3gmx25AnalysisDataAverageModule17standardDeviationEii(ptr noundef nonnull align 8 dereferenceable(112) %0, i32 noundef %1, i32 noundef %2) #2 align 2 {
  %4 = alloca ptr, align 8
  %5 = alloca i32, align 4
  %6 = alloca i32, align 4
  store ptr %0, ptr %4, align 8
  store i32 %1, ptr %5, align 4
  store i32 %2, ptr %6, align 4
  %7 = load ptr, ptr %4, align 8
  %8 = getelementptr inbounds %"class.gmx::AnalysisDataAverageModule", ptr %7, i32 0, i32 2
  %9 = call noundef ptr @_ZNKSt10unique_ptrIN3gmx25AnalysisDataAverageModule4ImplESt14default_deleteIS2_EEptEv(ptr noundef nonnull align 8 dereferenceable(8) %8) #13
  %10 = getelementptr inbounds %"class.gmx::AnalysisDataAverageModule::Impl", ptr %9, i32 0, i32 1
  %11 = load i8, ptr %10, align 8
  %12 = trunc i8 %11 to i1
  br i1 %12, label %13, label %14

13:                                               ; preds = %3
  call void @_ZSt4swapIiENSt9enable_ifIXsr6__and_ISt6__not_ISt15__is_tuple_likeIT_EESt21is_move_constructibleIS3_ESt18is_move_assignableIS3_EEE5valueEvE4typeERS3_SC_(ptr noundef nonnull align 4 dereferenceable(4) %5, ptr noundef nonnull align 4 dereferenceable(4) %6) #13
  br label %14

14:                                               ; preds = %13, %3
  %15 = load i32, ptr %6, align 4
  %16 = load i32, ptr %5, align 4
  %17 = call noundef nonnull align 8 dereferenceable(16) ptr @_ZNK3gmx25AbstractAnalysisArrayData5valueEii(ptr noundef nonnull align 8 dereferenceable(94) %7, i32 noundef %15, i32 noundef %16)
  %18 = call noundef float @_ZNK3gmx17AnalysisDataValue5errorEv(ptr noundef nonnull align 8 dereferenceable(16) %17)
  ret float %18
}