; Function Attrs: mustprogress uwtable
define noundef float @_ZNK3gmx25AnalysisDataAverageModule17standardDeviationEii(ptr noundef nonnull align 8 dereferenceable(112) %0, i32 noundef %1, i32 noundef %2) local_unnamed_addr #3 align 2 {
  %4 = getelementptr inbounds i8, ptr %0, i64 104
  %5 = load ptr, ptr %4, align 8
  %6 = getelementptr inbounds i8, ptr %5, i64 24
  %7 = load i8, ptr %6, align 8
  %8 = trunc i8 %7 to i1
  %spec.select = select i1 %8, i32 %2, i32 %1
  %spec.select5 = select i1 %8, i32 %1, i32 %2
  %9 = getelementptr inbounds i8, ptr %0, i64 40
  %10 = tail call noundef i32 @_ZNK3gmx20AbstractAnalysisData11columnCountEv(ptr noundef nonnull align 8 dereferenceable(16) %0)
  %11 = mul nsw i32 %spec.select5, %10
  %12 = add nsw i32 %11, %spec.select
  %13 = sext i32 %12 to i64
  %14 = load ptr, ptr %9, align 8
  %15 = getelementptr inbounds %"class.gmx::AnalysisDataValue", ptr %14, i64 %13, i32 1
  %16 = load float, ptr %15, align 4
  ret float %16
}